target datalayout = "e-m:e-p270:32:32-p271:32:32-p272:64:64-i64:64-i128:128-f80:128-n8:16:32:64-S128"
target triple = "x86_64-pc-linux-gnu"

%struct.hwloc_topology = type { i32, i32, i32, ptr, ptr, i64, [20 x i32], [20 x i32], i64, i64, i32, ptr, i64, ptr, i64, [6 x %struct.hwloc_special_level_s], ptr, ptr, %struct.hwloc_binding_hooks, %struct.hwloc_topology_support, %struct.hwloc_infos_s, ptr, ptr, i32, ptr, ptr, i32, i32, ptr, i32, i32, ptr, i32, i32, i32, [5 x float], i32, ptr, ptr, i32, i32, ptr, i32, %struct.hwloc_numanode_attr_s, i32, i32, ptr, i64, i32, ptr, ptr, ptr }
%struct.hwloc_special_level_s = type { i32, ptr, ptr, ptr }
%struct.hwloc_binding_hooks = type { ptr, ptr, ptr, ptr, ptr, ptr, ptr, ptr, ptr, ptr, ptr, ptr, ptr, ptr, ptr, ptr, ptr, ptr, ptr, ptr, ptr, ptr, ptr, ptr }
%struct.hwloc_topology_support = type { ptr, ptr, ptr, ptr }
%struct.hwloc_infos_s = type { ptr, i32, i32 }
%struct.hwloc_numanode_attr_s = type { i64, i32, ptr }

; Function Attrs: nounwind uwtable
define i32 @hwloc_get_last_cpu_location(ptr noundef %0, ptr noundef %1, i32 noundef %2) #0 {
  %4 = alloca i32, align 4
  %5 = alloca ptr, align 8
  %6 = alloca ptr, align 8
  %7 = alloca i32, align 4
  %8 = alloca i32, align 4
  %9 = alloca i32, align 4
  store ptr %0, ptr %5, align 8, !tbaa !3
  store ptr %1, ptr %6, align 8, !tbaa !8
  store i32 %2, ptr %7, align 4, !tbaa !10
  %10 = load i32, ptr %7, align 4, !tbaa !10
  %11 = and i32 %10, -16
  %12 = icmp ne i32 %11, 0
  br i1 %12, label %13, label %15

13:                                               ; preds = %3
  %14 = call ptr @__errno_location() #8
  store i32 22, ptr %14, align 4, !tbaa !10
  store i32 -1, ptr %4, align 4
  br label %101

15:                                               ; preds = %3
  %16 = load i32, ptr %7, align 4, !tbaa !10
  %17 = and i32 %16, 1
  %18 = icmp ne i32 %17, 0
  br i1 %18, label %19, label %35

19:                                               ; preds = %15
  %20 = load ptr, ptr %5, align 8, !tbaa !3
  %21 = getelementptr inbounds nuw %struct.hwloc_topology, ptr %20, i32 0, i32 18
  %22 = getelementptr inbounds nuw %struct.hwloc_binding_hooks, ptr %21, i32 0, i32 8
  %23 = load ptr, ptr %22, align 8, !tbaa !43
  %24 = icmp ne ptr %23, null
  br i1 %24, label %25, label %34

25:                                               ; preds = %19
  %26 = load ptr, ptr %5, align 8, !tbaa !3
  %27 = getelementptr inbounds nuw %struct.hwloc_topology, ptr %26, i32 0, i32 18
  %28 = getelementptr inbounds nuw %struct.hwloc_binding_hooks, ptr %27, i32 0, i32 8
  %29 = load ptr, ptr %28, align 8, !tbaa !43
  %30 = load ptr, ptr %5, align 8, !tbaa !3
  %31 = load ptr, ptr %6, align 8, !tbaa !8
  %32 = load i32, ptr %7, align 4, !tbaa !10
  %33 = call i32 %29(ptr noundef %30, ptr noundef %31, i32 noundef %32)
  store i32 %33, ptr %4, align 4
  br label %101

34:                                               ; preds = %19
  br label %99

35:                                               ; preds = %15
  %36 = load i32, ptr %7, align 4, !tbaa !10
  %37 = and i32 %36, 2
  %38 = icmp ne i32 %37, 0
  br i1 %38, label %39, label %55

39:                                               ; preds = %35
  %40 = load ptr, ptr %5, align 8, !tbaa !3
  %41 = getelementptr inbounds nuw %struct.hwloc_topology, ptr %40, i32 0, i32 18
  %42 = getelementptr inbounds nuw %struct.hwloc_binding_hooks, ptr %41, i32 0, i32 9
  %43 = load ptr, ptr %42, align 8, !tbaa !44
  %44 = icmp ne ptr %43, null
  br i1 %44, label %45, label %54

45:                                               ; preds = %39
  %46 = load ptr, ptr %5, align 8, !tbaa !3
  %47 = getelementptr inbounds nuw %struct.hwloc_topology, ptr %46, i32 0, i32 18
  %48 = getelementptr inbounds nuw %struct.hwloc_binding_hooks, ptr %47, i32 0, i32 9
  %49 = load ptr, ptr %48, align 8, !tbaa !44
  %50 = load ptr, ptr %5, align 8, !tbaa !3
  %51 = load ptr, ptr %6, align 8, !tbaa !8
  %52 = load i32, ptr %7, align 4, !tbaa !10
  %53 = call i32 %49(ptr noundef %50, ptr noundef %51, i32 noundef %52)
  store i32 %53, ptr %4, align 4
  br label %101

54:                                               ; preds = %39
  br label %98

55:                                               ; preds = %35
  %56 = load ptr, ptr %5, align 8, !tbaa !3
  %57 = getelementptr inbounds nuw %struct.hwloc_topology, ptr %56, i32 0, i32 18
  %58 = getelementptr inbounds nuw %struct.hwloc_binding_hooks, ptr %57, i32 0, i32 8
  %59 = load ptr, ptr %58, align 8, !tbaa !43
  %60 = icmp ne ptr %59, null
  br i1 %60, label %61, label %82

61:                                               ; preds = %55
  call void @llvm.lifetime.start.p0(i64 4, ptr %8) #9
  %62 = load ptr, ptr %5, align 8, !tbaa !3
  %63 = getelementptr inbounds nuw %struct.hwloc_topology, ptr %62, i32 0, i32 18
  %64 = getelementptr inbounds nuw %struct.hwloc_binding_hooks, ptr %63, i32 0, i32 8
  %65 = load ptr, ptr %64, align 8, !tbaa !43
  %66 = load ptr, ptr %5, align 8, !tbaa !3
  %67 = load ptr, ptr %6, align 8, !tbaa !8
  %68 = load i32, ptr %7, align 4, !tbaa !10
  %69 = call i32 %65(ptr noundef %66, ptr noundef %67, i32 noundef %68)
  store i32 %69, ptr %8, align 4, !tbaa !10
  %70 = load i32, ptr %8, align 4, !tbaa !10
  %71 = icmp sge i32 %70, 0
  br i1 %71, label %76, label %72

72:                                               ; preds = %61
  %73 = call ptr @__errno_location() #8
  %74 = load i32, ptr %73, align 4, !tbaa !10
  %75 = icmp ne i32 %74, 38
  br i1 %75, label %76, label %78

76:                                               ; preds = %72, %61
  %77 = load i32, ptr %8, align 4, !tbaa !10
  store i32 %77, ptr %4, align 4
  store i32 1, ptr %9, align 4
  br label %79

78:                                               ; preds = %72
  store i32 0, ptr %9, align 4
  br label %79

79:                                               ; preds = %78, %76
  call void @llvm.lifetime.end.p0(i64 4, ptr %8) #9
  %80 = load i32, ptr %9, align 4
  switch i32 %80, label %103 [
    i32 0, label %81
    i32 1, label %101
  ]

81:                                               ; preds = %79
  br label %82

82:                                               ; preds = %81, %55
  %83 = load ptr, ptr %5, align 8, !tbaa !3
  %84 = getelementptr inbounds nuw %struct.hwloc_topology, ptr %83, i32 0, i32 18
  %85 = getelementptr inbounds nuw %struct.hwloc_binding_hooks, ptr %84, i32 0, i32 9
  %86 = load ptr, ptr %85, align 8, !tbaa !44
  %87 = icmp ne ptr %86, null
  br i1 %87, label %88, label %97

88:                                               ; preds = %82
  %89 = load ptr, ptr %5, align 8, !tbaa !3
  %90 = getelementptr inbounds nuw %struct.hwloc_topology, ptr %89, i32 0, i32 18
  %91 = getelementptr inbounds nuw %struct.hwloc_binding_hooks, ptr %90, i32 0, i32 9
  %92 = load ptr, ptr %91, align 8, !tbaa !44
  %93 = load ptr, ptr %5, align 8, !tbaa !3
  %94 = load ptr, ptr %6, align 8, !tbaa !8
  %95 = load i32, ptr %7, align 4, !tbaa !10
  %96 = call i32 %92(ptr noundef %93, ptr noundef %94, i32 noundef %95)
  store i32 %96, ptr %4, align 4
  br label %101

97:                                               ; preds = %82
  br label %98

98:                                               ; preds = %97, %54
  br label %99

99:                                               ; preds = %98, %34
  %100 = call ptr @__errno_location() #8
  store i32 38, ptr %100, align 4, !tbaa !10
  store i32 -1, ptr %4, align 4
  br label %101

101:                                              ; preds = %99, %88, %79, %45, %25, %13
  %102 = load i32, ptr %4, align 4
  ret i32 %102

103:                                              ; preds = %79
  unreachable
}