; Function Attrs: nounwind uwtable
define i32 @hwloc_get_last_cpu_location(ptr noundef %0, ptr noundef %1, i32 noundef %2) local_unnamed_addr #0 {
  %.not = icmp ult i32 %2, 16
  br i1 %.not, label %6, label %4

4:                                                ; preds = %3
  %5 = tail call ptr @__errno_location() #12
  store i32 22, ptr %5, align 4, !tbaa !3
  br label %.thread

6:                                                ; preds = %3
  %7 = and i32 %2, 1
  %.not31 = icmp eq i32 %7, 0
  br i1 %.not31, label %13, label %8

8:                                                ; preds = %6
  %9 = getelementptr inbounds nuw i8, ptr %0, i64 528
  %10 = load ptr, ptr %9, align 8, !tbaa !39
  %.not37 = icmp eq ptr %10, null
  br i1 %.not37, label %34, label %11

11:                                               ; preds = %8
  %12 = tail call i32 %10(ptr noundef nonnull %0, ptr noundef %1, i32 noundef %2) #14
  br label %.thread

13:                                               ; preds = %6
  %14 = and i32 %2, 2
  %.not32 = icmp eq i32 %14, 0
  br i1 %.not32, label %20, label %15

15:                                               ; preds = %13
  %16 = getelementptr inbounds nuw i8, ptr %0, i64 536
  %17 = load ptr, ptr %16, align 8, !tbaa !40
  %.not36 = icmp eq ptr %17, null
  br i1 %.not36, label %34, label %18

18:                                               ; preds = %15
  %19 = tail call i32 %17(ptr noundef nonnull %0, ptr noundef %1, i32 noundef %2) #14
  br label %.thread

20:                                               ; preds = %13
  %21 = getelementptr inbounds nuw i8, ptr %0, i64 528
  %22 = load ptr, ptr %21, align 8, !tbaa !39
  %.not33 = icmp eq ptr %22, null
  br i1 %.not33, label %29, label %23

23:                                               ; preds = %20
  %24 = tail call i32 %22(ptr noundef nonnull %0, ptr noundef %1, i32 noundef %2) #14
  %25 = icmp sgt i32 %24, -1
  br i1 %25, label %.thread, label %26

26:                                               ; preds = %23
  %27 = tail call ptr @__errno_location() #12
  %28 = load i32, ptr %27, align 4, !tbaa !3
  %.not34 = icmp eq i32 %28, 38
  br i1 %.not34, label %29, label %.thread

29:                                               ; preds = %26, %20
  %30 = getelementptr inbounds nuw i8, ptr %0, i64 536
  %31 = load ptr, ptr %30, align 8, !tbaa !40
  %.not35 = icmp eq ptr %31, null
  br i1 %.not35, label %34, label %32

32:                                               ; preds = %29
  %33 = tail call i32 %31(ptr noundef nonnull %0, ptr noundef %1, i32 noundef %2) #14
  br label %.thread

34:                                               ; preds = %15, %29, %8
  %35 = tail call ptr @__errno_location() #12
  store i32 38, ptr %35, align 4, !tbaa !3
  br label %.thread

.thread:                                          ; preds = %26, %23, %34, %32, %18, %11, %4
  %.026 = phi i32 [ -1, %4 ], [ %12, %11 ], [ -1, %34 ], [ %19, %18 ], [ %33, %32 ], [ %24, %23 ], [ %24, %26 ]
  ret i32 %.026
}